; ModuleID = '7/1131.c'
source_filename = "7/1131.c"
target datalayout = "e-m:e-p270:32:32-p271:32:32-p272:64:64-i64:64-f80:128-n8:16:32:64-S128"
target triple = "x86_64-pc-linux-gnu"

@.str = private unnamed_addr constant [9 x i8] c"%s %s %s\00", align 1
@.str.1 = private unnamed_addr constant [3 x i8] c"%s\00", align 1

; Function Attrs: noinline nounwind uwtable
define dso_local i32 @main() #0 {
  %1 = alloca i32, align 4
  %2 = alloca [200 x i8], align 16
  %3 = alloca [300 x i8], align 16
  %4 = alloca [300 x i8], align 16
  %5 = alloca i32, align 4
  %6 = alloca i32, align 4
  %7 = alloca i32, align 4
  %8 = alloca i32, align 4
  %9 = alloca i32, align 4
  %10 = alloca i32, align 4
  %11 = alloca i32, align 4
  %12 = alloca i32, align 4
  store i32 0, i32* %1, align 4
  store i32 0, i32* %5, align 4
  %13 = getelementptr inbounds [200 x i8], [200 x i8]* %2, i64 0, i64 0
  %14 = getelementptr inbounds [300 x i8], [300 x i8]* %3, i64 0, i64 0
  %15 = getelementptr inbounds [300 x i8], [300 x i8]* %4, i64 0, i64 0
  %16 = call i32 (i8*, ...) @__isoc99_scanf(i8* getelementptr inbounds ([9 x i8], [9 x i8]* @.str, i64 0, i64 0), i8* %13, i8* %14, i8* %15)
  %17 = getelementptr inbounds [200 x i8], [200 x i8]* %2, i64 0, i64 0
  %18 = call i64 @strlen(i8* %17) #3
  %19 = trunc i64 %18 to i32
  store i32 %19, i32* %12, align 4
  %20 = getelementptr inbounds [300 x i8], [300 x i8]* %3, i64 0, i64 0
  %21 = call i64 @strlen(i8* %20) #3
  %22 = trunc i64 %21 to i32
  store i32 %22, i32* %11, align 4
  store i32 0, i32* %6, align 4
  br label %23

23:                                               ; preds = %79, %0
  %24 = load i32, i32* %6, align 4
  %25 = load i32, i32* %12, align 4
  %26 = icmp slt i32 %24, %25
  br i1 %26, label %27, label %82

27:                                               ; preds = %23
  %28 = load i32, i32* %6, align 4
  %29 = sext i32 %28 to i64
  %30 = getelementptr inbounds [200 x i8], [200 x i8]* %2, i64 0, i64 %29
  %31 = load i8, i8* %30, align 1
  %32 = sext i8 %31 to i32
  %33 = getelementptr inbounds [300 x i8], [300 x i8]* %3, i64 0, i64 0
  %34 = load i8, i8* %33, align 16
  %35 = sext i8 %34 to i32
  %36 = icmp eq i32 %32, %35
  br i1 %36, label %37, label %74

37:                                               ; preds = %27
  %38 = load i32, i32* %6, align 4
  store i32 %38, i32* %7, align 4
  store i32 0, i32* %8, align 4
  br label %39

39:                                               ; preds = %63, %37
  %40 = load i32, i32* %7, align 4
  %41 = load i32, i32* %6, align 4
  %42 = load i32, i32* %11, align 4
  %43 = add nsw i32 %41, %42
  %44 = icmp slt i32 %40, %43
  %45 = zext i1 %44 to i32
  %46 = load i32, i32* %8, align 4
  %47 = load i32, i32* %11, align 4
  %48 = icmp slt i32 %46, %47
  br i1 %48, label %49, label %68

49:                                               ; preds = %39
  %50 = load i32, i32* %7, align 4
  %51 = sext i32 %50 to i64
  %52 = getelementptr inbounds [200 x i8], [200 x i8]* %2, i64 0, i64 %51
  %53 = load i8, i8* %52, align 1
  %54 = sext i8 %53 to i32
  %55 = load i32, i32* %8, align 4
  %56 = sext i32 %55 to i64
  %57 = getelementptr inbounds [300 x i8], [300 x i8]* %3, i64 0, i64 %56
  %58 = load i8, i8* %57, align 1
  %59 = sext i8 %58 to i32
  %60 = icmp ne i32 %54, %59
  br i1 %60, label %61, label %62

61:                                               ; preds = %49
  br label %68

62:                                               ; preds = %49
  br label %63

63:                                               ; preds = %62
  %64 = load i32, i32* %7, align 4
  %65 = add nsw i32 %64, 1
  store i32 %65, i32* %7, align 4
  %66 = load i32, i32* %8, align 4
  %67 = add nsw i32 %66, 1
  store i32 %67, i32* %8, align 4
  br label %39

68:                                               ; preds = %61, %39
  %69 = load i32, i32* %8, align 4
  %70 = load i32, i32* %11, align 4
  %71 = icmp eq i32 %69, %70
  br i1 %71, label %72, label %73

72:                                               ; preds = %68
  store i32 1, i32* %5, align 4
  br label %73

73:                                               ; preds = %72, %68
  br label %74

74:                                               ; preds = %73, %27
  %75 = load i32, i32* %5, align 4
  %76 = icmp eq i32 %75, 1
  br i1 %76, label %77, label %78

77:                                               ; preds = %74
  br label %82

78:                                               ; preds = %74
  br label %79

79:                                               ; preds = %78
  %80 = load i32, i32* %6, align 4
  %81 = add nsw i32 %80, 1
  store i32 %81, i32* %6, align 4
  br label %23

82:                                               ; preds = %77, %23
  %83 = load i32, i32* %5, align 4
  %84 = icmp eq i32 %83, 1
  br i1 %84, label %85, label %113

85:                                               ; preds = %82
  %86 = load i32, i32* %6, align 4
  store i32 %86, i32* %9, align 4
  store i32 0, i32* %10, align 4
  br label %87

87:                                               ; preds = %105, %85
  %88 = load i32, i32* %9, align 4
  %89 = load i32, i32* %6, align 4
  %90 = load i32, i32* %11, align 4
  %91 = add nsw i32 %89, %90
  %92 = icmp slt i32 %88, %91
  %93 = zext i1 %92 to i32
  %94 = load i32, i32* %10, align 4
  %95 = load i32, i32* %11, align 4
  %96 = icmp slt i32 %94, %95
  br i1 %96, label %97, label %110

97:                                               ; preds = %87
  %98 = load i32, i32* %10, align 4
  %99 = sext i32 %98 to i64
  %100 = getelementptr inbounds [300 x i8], [300 x i8]* %4, i64 0, i64 %99
  %101 = load i8, i8* %100, align 1
  %102 = load i32, i32* %9, align 4
  %103 = sext i32 %102 to i64
  %104 = getelementptr inbounds [200 x i8], [200 x i8]* %2, i64 0, i64 %103
  store i8 %101, i8* %104, align 1
  br label %105

105:                                              ; preds = %97
  %106 = load i32, i32* %9, align 4
  %107 = add nsw i32 %106, 1
  store i32 %107, i32* %9, align 4
  %108 = load i32, i32* %10, align 4
  %109 = add nsw i32 %108, 1
  store i32 %109, i32* %10, align 4
  br label %87

110:                                              ; preds = %87
  %111 = getelementptr inbounds [200 x i8], [200 x i8]* %2, i64 0, i64 0
  %112 = call i32 (i8*, ...) @printf(i8* getelementptr inbounds ([3 x i8], [3 x i8]* @.str.1, i64 0, i64 0), i8* %111)
  br label %113

113:                                              ; preds = %110, %82
  %114 = load i32, i32* %5, align 4
  %115 = icmp eq i32 %114, 0
  br i1 %115, label %116, label %119

116:                                              ; preds = %113
  %117 = getelementptr inbounds [200 x i8], [200 x i8]* %2, i64 0, i64 0
  %118 = call i32 (i8*, ...) @printf(i8* getelementptr inbounds ([3 x i8], [3 x i8]* @.str.1, i64 0, i64 0), i8* %117)
  br label %119

119:                                              ; preds = %116, %113
  ret i32 0
}

declare dso_local i32 @__isoc99_scanf(i8*, ...) #1

; Function Attrs: nounwind readonly
declare dso_local i64 @strlen(i8*) #2

declare dso_local i32 @printf(i8*, ...) #1


!llvm.module.flags = !{!0}
!llvm.ident = !{!1}

!0 = !{i32 1, !"wchar_size", i32 4}
!1 = !{!"clang version 10.0.0-4ubuntu1 "}
